Certificate:
    Data:
        Version: 3 (0x2)
        Serial Number:
            e8:56:c9:00:9c:97:08:4b
    Signature Algorithm: sha256WithRSAEncryption
        Issuer: C=UK, ST=Suffolk, L=Bury St Edmunds, O=EosRemote, OU=https://github.com/DaveThw/EosRemote/, CN=EosRemote LAN Server CA
        Validity
            Not Before: Apr 18 12:54:29 2018 GMT
            Not After : Apr 18 12:54:29 2019 GMT
        Subject: C=UK, O=EosRemote, OU=EosRemote LAN Server, CN=eosremote
        Subject Public Key Info:
            Public Key Algorithm: rsaEncryption
                Public-Key: (2048 bit)
                Modulus:
                    00:df:f4:81:87:81:b0:1b:22:0b:b0:fa:fb:d9:9f:
                    fc:2e:36:35:f1:4d:ae:ea:44:f2:ad:c1:37:a7:ea:
                    d2:f9:a3:73:02:f1:75:0d:75:f4:ce:b3:f7:af:78:
                    97:04:7b:79:99:8a:a5:fa:1d:0c:dc:ac:36:53:f7:
                    ed:4a:46:6e:7b:d6:4f:a2:46:b2:49:8a:ce:df:f8:
                    02:f2:3a:7c:e3:8f:14:71:76:ee:1a:71:dc:7c:52:
                    a3:7a:44:30:92:af:b8:8c:7d:a4:19:06:fa:36:29:
                    dc:59:82:6a:2b:e1:6d:e9:d8:2e:14:5b:76:30:b4:
                    f9:df:e6:2d:38:87:c1:8e:c7:11:04:05:28:aa:4a:
                    60:f8:82:8a:76:6d:e7:e4:6d:04:92:9e:28:8a:09:
                    50:07:fa:53:f4:4c:64:f8:58:26:c9:66:b5:33:bc:
                    d1:5a:d5:6e:39:53:5f:60:00:17:60:0c:4c:68:6e:
                    8b:b3:04:88:fc:4f:4c:31:14:50:1d:60:68:a6:ef:
                    5a:4f:0e:88:07:45:86:c8:63:44:53:f8:36:d2:ee:
                    f7:24:a1:14:da:8e:0f:0e:f6:f7:53:4a:af:80:3f:
                    db:40:f7:41:48:af:41:86:1f:f4:d3:d4:ec:a5:a3:
                    a5:2a:94:e4:2c:6d:40:3c:fc:48:8d:40:81:95:5e:
                    5a:0f
                Exponent: 65537 (0x10001)
        X509v3 extensions:
            X509v3 Basic Constraints: critical
                CA:FALSE
            X509v3 Subject Key Identifier: 
                28:15:73:4F:AF:5B:74:5F:03:68:50:E1:42:DF:44:0B:B6:1D:2E:40
            X509v3 Authority Key Identifier: 
                keyid:F6:87:40:D2:6D:F6:52:09:D7:2E:1B:B1:15:A0:53:8A:6A:D8:02:C9

            X509v3 Key Usage: critical
                Digital Signature, Key Encipherment
            X509v3 Extended Key Usage: 
                TLS Web Server Authentication
            X509v3 Subject Alternative Name: 
                email:eosremote@dave.thwaites.org.uk, DNS:eosremote, DNS:eosremote.local, IP Address:10.101.1.2, IP Address:192.168.1.2, IP Address:192.168.1.80, IP Address:10.0.0.68
    Signature Algorithm: sha256WithRSAEncryption
         34:3d:66:ba:3d:f1:1d:e6:34:51:42:10:6d:41:86:cc:6c:a8:
         14:52:cf:37:be:36:53:45:77:c3:75:f8:69:a2:f6:2b:79:c3:
         19:81:6d:18:f6:f9:7a:d9:21:f4:8d:7a:ec:f4:e9:63:9d:d7:
         f0:0b:80:d2:1f:3c:1e:b4:bb:db:d9:2e:b9:6e:ad:ef:3f:be:
         99:d9:3f:96:8a:a6:14:6d:0e:ca:d6:65:81:be:21:2f:0c:e1:
         c0:4c:dc:59:5a:b7:6c:25:11:b6:4f:40:02:9e:c2:d8:50:b3:
         10:6a:dc:87:d8:74:5c:3a:5b:b2:b7:b9:3c:6c:b1:5a:8a:4a:
         bc:9f:94:20:40:ae:cf:e7:b5:88:1a:7a:74:01:32:0f:42:57:
         13:06:3b:1f:66:59:5a:6c:4f:ba:c5:c4:5e:d5:0f:20:cd:61:
         00:30:d0:6d:b6:f6:b5:12:86:5e:9a:8a:06:54:f0:b9:d3:8b:
         3d:44:fa:19:76:6e:a9:22:98:14:a7:f3:98:dd:95:56:f7:24:
         02:99:71:06:58:a0:f4:29:c3:3d:61:bf:1f:ab:9d:ec:28:d5:
         b0:b0:3e:71:2c:a7:ee:6b:36:b9:76:ba:0d:c2:d3:e7:cd:36:
         c6:1b:8b:e1:ab:0a:dc:af:72:02:55:c2:cc:cb:86:d7:0f:f3:
         6a:c7:34:c2
-----BEGIN CERTIFICATE-----
MIIETTCCAzWgAwIBAgIJAOhWyQCclwhLMA0GCSqGSIb3DQEBCwUAMIGfMQswCQYD
VQQGEwJVSzEQMA4GA1UECAwHU3VmZm9sazEYMBYGA1UEBwwPQnVyeSBTdCBFZG11
bmRzMRIwEAYDVQQKDAlFb3NSZW1vdGUxLjAsBgNVBAsMJWh0dHBzOi8vZ2l0aHVi
LmNvbS9EYXZlVGh3L0Vvc1JlbW90ZS8xIDAeBgNVBAMMF0Vvc1JlbW90ZSBMQU4g
U2VydmVyIENBMB4XDTE4MDQxODEyNTQyOVoXDTE5MDQxODEyNTQyOVowVDELMAkG
A1UEBhMCVUsxEjAQBgNVBAoMCUVvc1JlbW90ZTEdMBsGA1UECwwURW9zUmVtb3Rl
IExBTiBTZXJ2ZXIxEjAQBgNVBAMMCWVvc3JlbW90ZTCCASIwDQYJKoZIhvcNAQEB
BQADggEPADCCAQoCggEBAN/0gYeBsBsiC7D6+9mf/C42NfFNrupE8q3BN6fq0vmj
cwLxdQ119M6z9694lwR7eZmKpfodDNysNlP37UpGbnvWT6JGskmKzt/4AvI6fOOP
FHF27hpx3HxSo3pEMJKvuIx9pBkG+jYp3FmCaivhbenYLhRbdjC0+d/mLTiHwY7H
EQQFKKpKYPiCinZt5+RtBJKeKIoJUAf6U/RMZPhYJslmtTO80VrVbjlTX2AAF2AM
TGhui7MEiPxPTDEUUB1gaKbvWk8OiAdFhshjRFP4NtLu9yShFNqODw7291NKr4A/
20D3QUivQYYf9NPU7KWjpSqU5CxtQDz8SI1AgZVeWg8CAwEAAaOB1TCB0jAMBgNV
HRMBAf8EAjAAMB0GA1UdDgQWBBQoFXNPr1t0XwNoUOFC30QLth0uQDAfBgNVHSME
GDAWgBT2h0DSbfZSCdcuG7EVoFOKatgCyTAOBgNVHQ8BAf8EBAMCBaAwEwYDVR0l
BAwwCgYIKwYBBQUHAwEwXQYDVR0RBFYwVIEeZW9zcmVtb3RlQGRhdmUudGh3YWl0
ZXMub3JnLnVrggllb3NyZW1vdGWCD2Vvc3JlbW90ZS5sb2NhbIcECmUBAocEwKgB
AocEwKgBUIcECgAARDANBgkqhkiG9w0BAQsFAAOCAQEAND1muj3xHeY0UUIQbUGG
zGyoFFLPN742U0V3w3X4aaL2K3nDGYFtGPb5etkh9I167PTpY53X8AuA0h88HrS7
29kuuW6t7z++mdk/loqmFG0OytZlgb4hLwzhwEzcWVq3bCURtk9AAp7C2FCzEGrc
h9h0XDpbsre5PGyxWopKvJ+UIECuz+e1iBp6dAEyD0JXEwY7H2ZZWmxPusXEXtUP
IM1hADDQbbb2tRKGXpqKBlTwudOLPUT6GXZuqSKYFKfzmN2VVvckAplxBlig9CnD
PWG/H6ud7CjVsLA+cSyn7ms2uXa6DcLT5802xhuL4asK3K9yAlXCzMuG1w/zasc0
wg==
-----END CERTIFICATE-----
