Certificate:
    Data:
        Version: 3 (0x2)
        Serial Number:
            e8:56:c9:00:9c:97:08:47
    Signature Algorithm: sha256WithRSAEncryption
        Issuer: C=UK, ST=Suffolk, L=Bury St Edmunds, O=EosRemote, OU=https://github.com/DaveThw/EosRemote//emailAddress=eosremote@dave.thwaites.org.uk, CN=EosRemote LAN Server CA
        Validity
            Not Before: Apr 17 18:48:55 2018 GMT
            Not After : Apr 17 18:48:55 2019 GMT
        Subject: C=UK, O=EosRemote, OU=EosRemote LAN Server, CN=eosremote/emailAddress=eosremote@dave.thwaites.org.uk
        Subject Public Key Info:
            Public Key Algorithm: rsaEncryption
                Public-Key: (2048 bit)
                Modulus:
                    00:df:f4:81:87:81:b0:1b:22:0b:b0:fa:fb:d9:9f:
                    fc:2e:36:35:f1:4d:ae:ea:44:f2:ad:c1:37:a7:ea:
                    d2:f9:a3:73:02:f1:75:0d:75:f4:ce:b3:f7:af:78:
                    97:04:7b:79:99:8a:a5:fa:1d:0c:dc:ac:36:53:f7:
                    ed:4a:46:6e:7b:d6:4f:a2:46:b2:49:8a:ce:df:f8:
                    02:f2:3a:7c:e3:8f:14:71:76:ee:1a:71:dc:7c:52:
                    a3:7a:44:30:92:af:b8:8c:7d:a4:19:06:fa:36:29:
                    dc:59:82:6a:2b:e1:6d:e9:d8:2e:14:5b:76:30:b4:
                    f9:df:e6:2d:38:87:c1:8e:c7:11:04:05:28:aa:4a:
                    60:f8:82:8a:76:6d:e7:e4:6d:04:92:9e:28:8a:09:
                    50:07:fa:53:f4:4c:64:f8:58:26:c9:66:b5:33:bc:
                    d1:5a:d5:6e:39:53:5f:60:00:17:60:0c:4c:68:6e:
                    8b:b3:04:88:fc:4f:4c:31:14:50:1d:60:68:a6:ef:
                    5a:4f:0e:88:07:45:86:c8:63:44:53:f8:36:d2:ee:
                    f7:24:a1:14:da:8e:0f:0e:f6:f7:53:4a:af:80:3f:
                    db:40:f7:41:48:af:41:86:1f:f4:d3:d4:ec:a5:a3:
                    a5:2a:94:e4:2c:6d:40:3c:fc:48:8d:40:81:95:5e:
                    5a:0f
                Exponent: 65537 (0x10001)
        X509v3 extensions:
            X509v3 Basic Constraints: critical
                CA:FALSE
            Netscape Comment: 
                OpenSSL Generated Certificate
            X509v3 Subject Key Identifier: 
                28:15:73:4F:AF:5B:74:5F:03:68:50:E1:42:DF:44:0B:B6:1D:2E:40
            X509v3 Authority Key Identifier: 
                keyid:F6:87:40:D2:6D:F6:52:09:D7:2E:1B:B1:15:A0:53:8A:6A:D8:02:C9

            X509v3 Key Usage: critical
                Digital Signature, Key Encipherment
            X509v3 Extended Key Usage: 
                TLS Web Server Authentication
            X509v3 Subject Alternative Name: 
                DNS:eosremote, DNS:eosremote.local, IP Address:10.101.1.2, IP Address:192.168.1.2, IP Address:192.168.1.80, IP Address:10.0.0.68
    Signature Algorithm: sha256WithRSAEncryption
         9b:2b:67:92:78:60:a3:08:6d:7c:f5:02:f2:f7:b2:8f:89:f6:
         18:f5:78:16:80:8f:33:54:6f:21:fd:34:5d:a4:3c:cf:0a:f8:
         b5:3a:e6:07:cd:22:f7:19:7f:77:2f:f3:96:30:6a:56:58:c1:
         a2:d7:81:c7:70:f1:51:01:7d:2a:2a:f2:5a:fb:30:07:a8:fc:
         1d:d9:f3:d2:b3:39:1e:38:17:b1:7a:64:26:f6:91:9a:92:2f:
         75:bd:6d:5f:63:58:c0:01:1f:1f:44:6c:50:a4:2a:59:54:e4:
         de:ec:73:aa:1c:e6:01:38:cd:f6:26:80:c0:d6:a7:f8:fa:42:
         50:e1:8d:d3:7a:cd:50:95:c0:fe:7b:a7:ab:8a:f5:ab:04:64:
         74:ac:aa:e8:bd:4d:78:c7:d2:4c:5c:0f:9f:10:be:c1:75:cc:
         d6:bb:74:1d:c6:6f:cf:ca:8a:c7:df:e1:d4:d3:d5:72:6d:bc:
         68:1a:03:5c:f9:c5:f9:68:eb:f5:01:66:c6:11:42:15:b4:2c:
         4f:d3:96:dc:94:71:01:fa:3d:42:98:f2:64:76:d1:ce:fa:fe:
         de:a8:27:f5:10:1a:37:2a:43:a5:c4:60:7e:c6:31:34:33:78:
         b8:55:53:e0:fd:79:c0:67:48:f8:9a:9a:26:28:6b:b4:4f:1a:
         fd:7e:35:ac
-----BEGIN CERTIFICATE-----
MIIEujCCA6KgAwIBAgIJAOhWyQCclwhHMA0GCSqGSIb3DQEBCwUAMIHOMQswCQYD
VQQGEwJVSzEQMA4GA1UECAwHU3VmZm9sazEYMBYGA1UEBwwPQnVyeSBTdCBFZG11
bmRzMRIwEAYDVQQKDAlFb3NSZW1vdGUxLjAsBgNVBAsMJWh0dHBzOi8vZ2l0aHVi
LmNvbS9EYXZlVGh3L0Vvc1JlbW90ZS8xLTArBgkqhkiG9w0BCQEWHmVvc3JlbW90
ZUBkYXZlLnRod2FpdGVzLm9yZy51azEgMB4GA1UEAwwXRW9zUmVtb3RlIExBTiBT
ZXJ2ZXIgQ0EwHhcNMTgwNDE3MTg0ODU1WhcNMTkwNDE3MTg0ODU1WjCBgzELMAkG
A1UEBhMCVUsxEjAQBgNVBAoMCUVvc1JlbW90ZTEdMBsGA1UECwwURW9zUmVtb3Rl
IExBTiBTZXJ2ZXIxEjAQBgNVBAMMCWVvc3JlbW90ZTEtMCsGCSqGSIb3DQEJARYe
ZW9zcmVtb3RlQGRhdmUudGh3YWl0ZXMub3JnLnVrMIIBIjANBgkqhkiG9w0BAQEF
AAOCAQ8AMIIBCgKCAQEA3/SBh4GwGyILsPr72Z/8LjY18U2u6kTyrcE3p+rS+aNz
AvF1DXX0zrP3r3iXBHt5mYql+h0M3Kw2U/ftSkZue9ZPokaySYrO3/gC8jp8448U
cXbuGnHcfFKjekQwkq+4jH2kGQb6NincWYJqK+Ft6dguFFt2MLT53+YtOIfBjscR
BAUoqkpg+IKKdm3n5G0Ekp4oiglQB/pT9Exk+FgmyWa1M7zRWtVuOVNfYAAXYAxM
aG6LswSI/E9MMRRQHWBopu9aTw6IB0WGyGNEU/g20u73JKEU2o4PDvb3U0qvgD/b
QPdBSK9Bhh/009TspaOlKpTkLG1APPxIjUCBlV5aDwIDAQABo4HjMIHgMAwGA1Ud
EwEB/wQCMAAwLAYJYIZIAYb4QgENBB8WHU9wZW5TU0wgR2VuZXJhdGVkIENlcnRp
ZmljYXRlMB0GA1UdDgQWBBQoFXNPr1t0XwNoUOFC30QLth0uQDAfBgNVHSMEGDAW
gBT2h0DSbfZSCdcuG7EVoFOKatgCyTAOBgNVHQ8BAf8EBAMCBaAwEwYDVR0lBAww
CgYIKwYBBQUHAwEwPQYDVR0RBDYwNIIJZW9zcmVtb3Rlgg9lb3NyZW1vdGUubG9j
YWyHBAplAQKHBMCoAQKHBMCoAVCHBAoAAEQwDQYJKoZIhvcNAQELBQADggEBAJsr
Z5J4YKMIbXz1AvL3so+J9hj1eBaAjzNUbyH9NF2kPM8K+LU65gfNIvcZf3cv85Yw
alZYwaLXgcdw8VEBfSoq8lr7MAeo/B3Z89KzOR44F7F6ZCb2kZqSL3W9bV9jWMAB
Hx9EbFCkKllU5N7sc6oc5gE4zfYmgMDWp/j6QlDhjdN6zVCVwP57p6uK9asEZHSs
qui9TXjH0kxcD58QvsF1zNa7dB3Gb8/Kisff4dTT1XJtvGgaA1z5xflo6/UBZsYR
QhW0LE/TltyUcQH6PUKY8mR20c76/t6oJ/UQGjcqQ6XEYH7GMTQzeLhVU+D9ecBn
SPiamiYoa7RPGv1+Naw=
-----END CERTIFICATE-----
