Certificate:
    Data:
        Version: 3 (0x2)
        Serial Number:
            e8:56:c9:00:9c:97:08:46
    Signature Algorithm: sha256WithRSAEncryption
        Issuer: C=UK, ST=Suffolk, L=Bury St Edmunds, O=EosRemote, OU=https://github.com/DaveThw/EosRemote//emailAddress=eosremote@dave.thwaites.org.uk, CN=EosRemote LAN Server CA
        Validity
            Not Before: Apr 17 05:58:56 2018 GMT
            Not After : Apr 17 05:58:56 2019 GMT
        Subject: C=UK, O=EosRemote, OU=EosRemote LAN Server, CN=eosremote/emailAddress=eosremote@dave.thwaites.org.uk
        Subject Public Key Info:
            Public Key Algorithm: rsaEncryption
                Public-Key: (2048 bit)
                Modulus:
                    00:df:f4:81:87:81:b0:1b:22:0b:b0:fa:fb:d9:9f:
                    fc:2e:36:35:f1:4d:ae:ea:44:f2:ad:c1:37:a7:ea:
                    d2:f9:a3:73:02:f1:75:0d:75:f4:ce:b3:f7:af:78:
                    97:04:7b:79:99:8a:a5:fa:1d:0c:dc:ac:36:53:f7:
                    ed:4a:46:6e:7b:d6:4f:a2:46:b2:49:8a:ce:df:f8:
                    02:f2:3a:7c:e3:8f:14:71:76:ee:1a:71:dc:7c:52:
                    a3:7a:44:30:92:af:b8:8c:7d:a4:19:06:fa:36:29:
                    dc:59:82:6a:2b:e1:6d:e9:d8:2e:14:5b:76:30:b4:
                    f9:df:e6:2d:38:87:c1:8e:c7:11:04:05:28:aa:4a:
                    60:f8:82:8a:76:6d:e7:e4:6d:04:92:9e:28:8a:09:
                    50:07:fa:53:f4:4c:64:f8:58:26:c9:66:b5:33:bc:
                    d1:5a:d5:6e:39:53:5f:60:00:17:60:0c:4c:68:6e:
                    8b:b3:04:88:fc:4f:4c:31:14:50:1d:60:68:a6:ef:
                    5a:4f:0e:88:07:45:86:c8:63:44:53:f8:36:d2:ee:
                    f7:24:a1:14:da:8e:0f:0e:f6:f7:53:4a:af:80:3f:
                    db:40:f7:41:48:af:41:86:1f:f4:d3:d4:ec:a5:a3:
                    a5:2a:94:e4:2c:6d:40:3c:fc:48:8d:40:81:95:5e:
                    5a:0f
                Exponent: 65537 (0x10001)
        X509v3 extensions:
            X509v3 Basic Constraints: critical
                CA:FALSE
            Netscape Comment: 
                OpenSSL Generated Certificate
            X509v3 Subject Key Identifier: 
                28:15:73:4F:AF:5B:74:5F:03:68:50:E1:42:DF:44:0B:B6:1D:2E:40
            X509v3 Authority Key Identifier: 
                keyid:F6:87:40:D2:6D:F6:52:09:D7:2E:1B:B1:15:A0:53:8A:6A:D8:02:C9

            X509v3 Key Usage: critical
                Digital Signature, Key Encipherment
            X509v3 Extended Key Usage: 
                TLS Web Client Authentication
            X509v3 Subject Alternative Name: 
                DNS:eosremote, DNS:eosremote.local, IP Address:10.101.1.2, IP Address:192.168.1.2, IP Address:192.168.1.80, IP Address:10.0.0.68
    Signature Algorithm: sha256WithRSAEncryption
         1d:f7:01:f5:c3:29:b4:8f:09:1e:e8:83:eb:ea:e7:e6:13:62:
         2d:70:e9:3c:da:f1:e7:17:1e:f4:77:ae:12:54:68:b4:9f:80:
         1b:76:6a:28:bd:54:36:08:cf:69:86:bb:6f:c6:dc:00:bf:09:
         c8:5f:c8:d3:12:c3:d6:89:8c:ed:02:8f:f8:09:94:84:0c:44:
         4b:fd:68:bb:ff:a3:23:bd:6a:cc:92:b6:24:c7:fd:2e:f9:f6:
         35:4f:b3:c6:dc:d1:19:cc:d0:1d:0a:e2:d7:ea:d4:f7:cb:e5:
         6c:e2:c0:c5:59:85:3a:d6:af:d0:b0:3e:24:a0:44:49:7b:1d:
         6b:ca:09:bd:0e:cd:e9:9f:89:ce:d5:d9:e0:b3:00:f7:44:e6:
         9d:65:c6:44:83:e0:d2:8b:6b:ab:8c:48:d3:38:99:30:e6:77:
         bf:1b:fc:85:6c:fc:7d:6a:92:7b:78:fb:b7:84:b3:15:a6:3c:
         79:7c:d3:8f:69:23:80:6a:48:ba:d7:ab:bd:da:27:6e:dd:82:
         6d:34:22:11:e4:2f:a0:ff:60:c4:39:69:4e:e6:fa:20:b2:b7:
         53:9f:06:8f:90:65:01:3c:f0:33:31:41:f5:7b:75:49:37:fd:
         5b:23:49:52:5a:91:94:d2:2b:bc:69:8a:77:40:15:49:af:c6:
         32:09:22:dd
-----BEGIN CERTIFICATE-----
MIIEujCCA6KgAwIBAgIJAOhWyQCclwhGMA0GCSqGSIb3DQEBCwUAMIHOMQswCQYD
VQQGEwJVSzEQMA4GA1UECAwHU3VmZm9sazEYMBYGA1UEBwwPQnVyeSBTdCBFZG11
bmRzMRIwEAYDVQQKDAlFb3NSZW1vdGUxLjAsBgNVBAsMJWh0dHBzOi8vZ2l0aHVi
LmNvbS9EYXZlVGh3L0Vvc1JlbW90ZS8xLTArBgkqhkiG9w0BCQEWHmVvc3JlbW90
ZUBkYXZlLnRod2FpdGVzLm9yZy51azEgMB4GA1UEAwwXRW9zUmVtb3RlIExBTiBT
ZXJ2ZXIgQ0EwHhcNMTgwNDE3MDU1ODU2WhcNMTkwNDE3MDU1ODU2WjCBgzELMAkG
A1UEBhMCVUsxEjAQBgNVBAoMCUVvc1JlbW90ZTEdMBsGA1UECwwURW9zUmVtb3Rl
IExBTiBTZXJ2ZXIxEjAQBgNVBAMMCWVvc3JlbW90ZTEtMCsGCSqGSIb3DQEJARYe
ZW9zcmVtb3RlQGRhdmUudGh3YWl0ZXMub3JnLnVrMIIBIjANBgkqhkiG9w0BAQEF
AAOCAQ8AMIIBCgKCAQEA3/SBh4GwGyILsPr72Z/8LjY18U2u6kTyrcE3p+rS+aNz
AvF1DXX0zrP3r3iXBHt5mYql+h0M3Kw2U/ftSkZue9ZPokaySYrO3/gC8jp8448U
cXbuGnHcfFKjekQwkq+4jH2kGQb6NincWYJqK+Ft6dguFFt2MLT53+YtOIfBjscR
BAUoqkpg+IKKdm3n5G0Ekp4oiglQB/pT9Exk+FgmyWa1M7zRWtVuOVNfYAAXYAxM
aG6LswSI/E9MMRRQHWBopu9aTw6IB0WGyGNEU/g20u73JKEU2o4PDvb3U0qvgD/b
QPdBSK9Bhh/009TspaOlKpTkLG1APPxIjUCBlV5aDwIDAQABo4HjMIHgMAwGA1Ud
EwEB/wQCMAAwLAYJYIZIAYb4QgENBB8WHU9wZW5TU0wgR2VuZXJhdGVkIENlcnRp
ZmljYXRlMB0GA1UdDgQWBBQoFXNPr1t0XwNoUOFC30QLth0uQDAfBgNVHSMEGDAW
gBT2h0DSbfZSCdcuG7EVoFOKatgCyTAOBgNVHQ8BAf8EBAMCBaAwEwYDVR0lBAww
CgYIKwYBBQUHAwIwPQYDVR0RBDYwNIIJZW9zcmVtb3Rlgg9lb3NyZW1vdGUubG9j
YWyHBAplAQKHBMCoAQKHBMCoAVCHBAoAAEQwDQYJKoZIhvcNAQELBQADggEBAB33
AfXDKbSPCR7og+vq5+YTYi1w6Tza8ecXHvR3rhJUaLSfgBt2aii9VDYIz2mGu2/G
3AC/CchfyNMSw9aJjO0Cj/gJlIQMREv9aLv/oyO9asyStiTH/S759jVPs8bc0RnM
0B0K4tfq1PfL5WziwMVZhTrWr9CwPiSgREl7HWvKCb0Ozemfic7V2eCzAPdE5p1l
xkSD4NKLa6uMSNM4mTDmd78b/IVs/H1qknt4+7eEsxWmPHl8049pI4BqSLrXq73a
J27dgm00IhHkL6D/YMQ5aU7m+iCyt1OfBo+QZQE88DMxQfV7dUk3/VsjSVJakZTS
K7xpindAFUmvxjIJIt0=
-----END CERTIFICATE-----
