Certificate:
    Data:
        Version: 3 (0x2)
        Serial Number:
            e8:56:c9:00:9c:97:08:4a
    Signature Algorithm: sha256WithRSAEncryption
        Issuer: C=UK, ST=Suffolk, L=Bury St Edmunds, O=EosRemote, OU=https://github.com/DaveThw/EosRemote/, CN=EosRemote LAN Server CA
        Validity
            Not Before: Apr 17 20:08:18 2018 GMT
            Not After : Apr 17 20:08:18 2019 GMT
        Subject: C=UK, O=EosRemote, OU=EosRemote LAN Server, CN=eosremote
        Subject Public Key Info:
            Public Key Algorithm: rsaEncryption
                Public-Key: (2048 bit)
                Modulus:
                    00:df:f4:81:87:81:b0:1b:22:0b:b0:fa:fb:d9:9f:
                    fc:2e:36:35:f1:4d:ae:ea:44:f2:ad:c1:37:a7:ea:
                    d2:f9:a3:73:02:f1:75:0d:75:f4:ce:b3:f7:af:78:
                    97:04:7b:79:99:8a:a5:fa:1d:0c:dc:ac:36:53:f7:
                    ed:4a:46:6e:7b:d6:4f:a2:46:b2:49:8a:ce:df:f8:
                    02:f2:3a:7c:e3:8f:14:71:76:ee:1a:71:dc:7c:52:
                    a3:7a:44:30:92:af:b8:8c:7d:a4:19:06:fa:36:29:
                    dc:59:82:6a:2b:e1:6d:e9:d8:2e:14:5b:76:30:b4:
                    f9:df:e6:2d:38:87:c1:8e:c7:11:04:05:28:aa:4a:
                    60:f8:82:8a:76:6d:e7:e4:6d:04:92:9e:28:8a:09:
                    50:07:fa:53:f4:4c:64:f8:58:26:c9:66:b5:33:bc:
                    d1:5a:d5:6e:39:53:5f:60:00:17:60:0c:4c:68:6e:
                    8b:b3:04:88:fc:4f:4c:31:14:50:1d:60:68:a6:ef:
                    5a:4f:0e:88:07:45:86:c8:63:44:53:f8:36:d2:ee:
                    f7:24:a1:14:da:8e:0f:0e:f6:f7:53:4a:af:80:3f:
                    db:40:f7:41:48:af:41:86:1f:f4:d3:d4:ec:a5:a3:
                    a5:2a:94:e4:2c:6d:40:3c:fc:48:8d:40:81:95:5e:
                    5a:0f
                Exponent: 65537 (0x10001)
        X509v3 extensions:
            X509v3 Basic Constraints: critical
                CA:FALSE
            X509v3 Subject Key Identifier: 
                28:15:73:4F:AF:5B:74:5F:03:68:50:E1:42:DF:44:0B:B6:1D:2E:40
            X509v3 Authority Key Identifier: 
                keyid:F6:87:40:D2:6D:F6:52:09:D7:2E:1B:B1:15:A0:53:8A:6A:D8:02:C9

            X509v3 Subject Alternative Name: 
                email:eosremote@dave.thwaites.org.uk
            X509v3 Key Usage: critical
                Digital Signature, Key Encipherment
            X509v3 Extended Key Usage: 
                TLS Web Server Authentication
    Signature Algorithm: sha256WithRSAEncryption
         ef:24:27:93:5c:cb:26:84:db:e1:bc:12:47:6d:6a:ba:65:50:
         ed:5f:b6:15:8e:72:4a:16:57:55:03:28:a2:46:6f:c1:0e:ea:
         d1:6f:1a:f4:40:2e:35:37:60:dd:2e:64:f1:54:6d:1e:f9:12:
         a0:3a:ef:16:24:89:18:c9:ea:fc:c8:a2:05:80:32:15:14:84:
         50:d6:5a:79:ba:82:01:6a:b5:b2:8a:40:0f:f4:f3:f6:0d:d8:
         56:0f:1e:da:81:a7:78:96:ef:5b:ac:df:04:c6:d3:29:22:3f:
         bb:ef:55:40:f3:9b:11:0c:9f:d7:37:fb:8f:cb:bf:9e:fe:31:
         6b:04:75:ac:b4:fc:70:e3:0d:91:5e:5a:ce:2e:91:c8:39:c5:
         95:9a:03:52:a3:68:90:74:cc:3c:71:3c:67:e9:92:c5:25:d9:
         a9:ee:37:b4:dc:4d:a3:2b:b6:c4:29:e0:6c:89:9a:df:5b:be:
         f5:48:eb:e9:09:2d:92:9c:4b:17:37:c8:a2:6b:d6:aa:62:d9:
         a1:22:2d:37:38:d1:76:bc:88:c0:80:34:bd:93:1b:8d:cf:fe:
         75:62:07:f8:83:b4:c6:39:8c:26:b6:90:46:28:3f:59:17:cd:
         17:fb:1c:4f:1b:06:0d:27:37:04:28:f4:f4:c6:63:65:09:be:
         0d:a6:4d:0f
-----BEGIN CERTIFICATE-----
MIIEGTCCAwGgAwIBAgIJAOhWyQCclwhKMA0GCSqGSIb3DQEBCwUAMIGfMQswCQYD
VQQGEwJVSzEQMA4GA1UECAwHU3VmZm9sazEYMBYGA1UEBwwPQnVyeSBTdCBFZG11
bmRzMRIwEAYDVQQKDAlFb3NSZW1vdGUxLjAsBgNVBAsMJWh0dHBzOi8vZ2l0aHVi
LmNvbS9EYXZlVGh3L0Vvc1JlbW90ZS8xIDAeBgNVBAMMF0Vvc1JlbW90ZSBMQU4g
U2VydmVyIENBMB4XDTE4MDQxNzIwMDgxOFoXDTE5MDQxNzIwMDgxOFowVDELMAkG
A1UEBhMCVUsxEjAQBgNVBAoMCUVvc1JlbW90ZTEdMBsGA1UECwwURW9zUmVtb3Rl
IExBTiBTZXJ2ZXIxEjAQBgNVBAMMCWVvc3JlbW90ZTCCASIwDQYJKoZIhvcNAQEB
BQADggEPADCCAQoCggEBAN/0gYeBsBsiC7D6+9mf/C42NfFNrupE8q3BN6fq0vmj
cwLxdQ119M6z9694lwR7eZmKpfodDNysNlP37UpGbnvWT6JGskmKzt/4AvI6fOOP
FHF27hpx3HxSo3pEMJKvuIx9pBkG+jYp3FmCaivhbenYLhRbdjC0+d/mLTiHwY7H
EQQFKKpKYPiCinZt5+RtBJKeKIoJUAf6U/RMZPhYJslmtTO80VrVbjlTX2AAF2AM
TGhui7MEiPxPTDEUUB1gaKbvWk8OiAdFhshjRFP4NtLu9yShFNqODw7291NKr4A/
20D3QUivQYYf9NPU7KWjpSqU5CxtQDz8SI1AgZVeWg8CAwEAAaOBoTCBnjAMBgNV
HRMBAf8EAjAAMB0GA1UdDgQWBBQoFXNPr1t0XwNoUOFC30QLth0uQDAfBgNVHSME
GDAWgBT2h0DSbfZSCdcuG7EVoFOKatgCyTApBgNVHREEIjAggR5lb3NyZW1vdGVA
ZGF2ZS50aHdhaXRlcy5vcmcudWswDgYDVR0PAQH/BAQDAgWgMBMGA1UdJQQMMAoG
CCsGAQUFBwMBMA0GCSqGSIb3DQEBCwUAA4IBAQDvJCeTXMsmhNvhvBJHbWq6ZVDt
X7YVjnJKFldVAyiiRm/BDurRbxr0QC41N2DdLmTxVG0e+RKgOu8WJIkYyer8yKIF
gDIVFIRQ1lp5uoIBarWyikAP9PP2DdhWDx7agad4lu9brN8ExtMpIj+771VA85sR
DJ/XN/uPy7+e/jFrBHWstPxw4w2RXlrOLpHIOcWVmgNSo2iQdMw8cTxn6ZLFJdmp
7je03E2jK7bEKeBsiZrfW771SOvpCS2SnEsXN8iia9aqYtmhIi03ONF2vIjAgDS9
kxuNz/51Ygf4g7TGOYwmtpBGKD9ZF80X+xxPGwYNJzcEKPT0xmNlCb4Npk0P
-----END CERTIFICATE-----
