Certificate:
    Data:
        Version: 3 (0x2)
        Serial Number:
            e8:56:c9:00:9c:97:08:57
    Signature Algorithm: sha256WithRSAEncryption
        Issuer: C=UK, ST=Suffolk, L=Bury St Edmunds, O=EosRemote, OU=https://github.com/DaveThw/EosRemote/, CN=EosRemote LAN Server CA
        Validity
            Not Before: Mar 14 21:33:39 2021 GMT
            Not After : Mar 14 21:33:39 2022 GMT
        Subject: C=UK, O=EosRemote, OU=EosRemote LAN Server, CN=eosremote
        Subject Public Key Info:
            Public Key Algorithm: rsaEncryption
                Public-Key: (2048 bit)
                Modulus:
                    00:df:f4:81:87:81:b0:1b:22:0b:b0:fa:fb:d9:9f:
                    fc:2e:36:35:f1:4d:ae:ea:44:f2:ad:c1:37:a7:ea:
                    d2:f9:a3:73:02:f1:75:0d:75:f4:ce:b3:f7:af:78:
                    97:04:7b:79:99:8a:a5:fa:1d:0c:dc:ac:36:53:f7:
                    ed:4a:46:6e:7b:d6:4f:a2:46:b2:49:8a:ce:df:f8:
                    02:f2:3a:7c:e3:8f:14:71:76:ee:1a:71:dc:7c:52:
                    a3:7a:44:30:92:af:b8:8c:7d:a4:19:06:fa:36:29:
                    dc:59:82:6a:2b:e1:6d:e9:d8:2e:14:5b:76:30:b4:
                    f9:df:e6:2d:38:87:c1:8e:c7:11:04:05:28:aa:4a:
                    60:f8:82:8a:76:6d:e7:e4:6d:04:92:9e:28:8a:09:
                    50:07:fa:53:f4:4c:64:f8:58:26:c9:66:b5:33:bc:
                    d1:5a:d5:6e:39:53:5f:60:00:17:60:0c:4c:68:6e:
                    8b:b3:04:88:fc:4f:4c:31:14:50:1d:60:68:a6:ef:
                    5a:4f:0e:88:07:45:86:c8:63:44:53:f8:36:d2:ee:
                    f7:24:a1:14:da:8e:0f:0e:f6:f7:53:4a:af:80:3f:
                    db:40:f7:41:48:af:41:86:1f:f4:d3:d4:ec:a5:a3:
                    a5:2a:94:e4:2c:6d:40:3c:fc:48:8d:40:81:95:5e:
                    5a:0f
                Exponent: 65537 (0x10001)
        X509v3 extensions:
            X509v3 Basic Constraints: critical
                CA:FALSE
            X509v3 Subject Key Identifier: 
                28:15:73:4F:AF:5B:74:5F:03:68:50:E1:42:DF:44:0B:B6:1D:2E:40
            X509v3 Authority Key Identifier: 
                keyid:F6:87:40:D2:6D:F6:52:09:D7:2E:1B:B1:15:A0:53:8A:6A:D8:02:C9

            X509v3 Key Usage: critical
                Digital Signature, Key Encipherment
            X509v3 Extended Key Usage: 
                TLS Web Server Authentication
            X509v3 Subject Alternative Name: 
                email:eosremote@dave.thwaites.org.uk, DNS:eosremote, DNS:eosremote.local, IP Address:10.101.1.2, IP Address:192.168.1.2, IP Address:192.168.1.80, IP Address:10.0.0.68, IP Address:192.168.1.123
    Signature Algorithm: sha256WithRSAEncryption
         84:c0:4d:2a:96:97:4b:4c:9a:6c:e4:f2:c8:37:fa:40:f5:b9:
         94:3a:75:80:9e:1f:5c:2e:73:39:91:e4:70:57:9f:9b:33:99:
         13:c7:34:a5:35:9f:6b:79:c7:25:4b:39:ec:95:aa:1e:ea:02:
         36:51:04:8e:b7:ec:3b:5c:cb:9d:94:50:e7:c5:a4:dc:6e:0e:
         9b:c4:b1:81:e7:93:ea:26:b2:a7:c6:b3:00:aa:67:07:13:11:
         2d:b2:36:08:83:6b:86:fd:5a:3b:c2:51:e9:bf:13:2e:58:23:
         c6:73:03:16:c0:8e:16:bf:c9:86:ff:1e:f9:a4:60:9a:52:ee:
         ef:20:e6:fb:4e:58:34:28:fa:8f:b0:ce:a6:8a:41:51:4c:c8:
         07:06:f4:eb:c4:b5:82:d0:e9:fb:d2:f9:ca:11:1e:a7:1e:3e:
         b5:2b:f9:64:fe:c8:21:20:4b:0a:c6:3e:03:f6:d6:09:f5:02:
         f3:1b:b1:01:a0:56:98:45:92:1f:26:94:8f:4c:bd:35:dd:b9:
         f8:e2:3f:ed:70:8f:1a:e3:99:27:5c:6b:fd:9e:06:2a:d8:e6:
         90:c9:ef:45:b7:a2:34:2f:b7:8e:07:56:ab:af:34:b5:d2:51:
         0a:4e:d3:76:84:34:a4:8f:35:7a:05:a3:ab:ce:e5:71:d4:4c:
         27:65:45:8f
-----BEGIN CERTIFICATE-----
MIIEUzCCAzugAwIBAgIJAOhWyQCclwhXMA0GCSqGSIb3DQEBCwUAMIGfMQswCQYD
VQQGEwJVSzEQMA4GA1UECAwHU3VmZm9sazEYMBYGA1UEBwwPQnVyeSBTdCBFZG11
bmRzMRIwEAYDVQQKDAlFb3NSZW1vdGUxLjAsBgNVBAsMJWh0dHBzOi8vZ2l0aHVi
LmNvbS9EYXZlVGh3L0Vvc1JlbW90ZS8xIDAeBgNVBAMMF0Vvc1JlbW90ZSBMQU4g
U2VydmVyIENBMB4XDTIxMDMxNDIxMzMzOVoXDTIyMDMxNDIxMzMzOVowVDELMAkG
A1UEBhMCVUsxEjAQBgNVBAoMCUVvc1JlbW90ZTEdMBsGA1UECwwURW9zUmVtb3Rl
IExBTiBTZXJ2ZXIxEjAQBgNVBAMMCWVvc3JlbW90ZTCCASIwDQYJKoZIhvcNAQEB
BQADggEPADCCAQoCggEBAN/0gYeBsBsiC7D6+9mf/C42NfFNrupE8q3BN6fq0vmj
cwLxdQ119M6z9694lwR7eZmKpfodDNysNlP37UpGbnvWT6JGskmKzt/4AvI6fOOP
FHF27hpx3HxSo3pEMJKvuIx9pBkG+jYp3FmCaivhbenYLhRbdjC0+d/mLTiHwY7H
EQQFKKpKYPiCinZt5+RtBJKeKIoJUAf6U/RMZPhYJslmtTO80VrVbjlTX2AAF2AM
TGhui7MEiPxPTDEUUB1gaKbvWk8OiAdFhshjRFP4NtLu9yShFNqODw7291NKr4A/
20D3QUivQYYf9NPU7KWjpSqU5CxtQDz8SI1AgZVeWg8CAwEAAaOB2zCB2DAMBgNV
HRMBAf8EAjAAMB0GA1UdDgQWBBQoFXNPr1t0XwNoUOFC30QLth0uQDAfBgNVHSME
GDAWgBT2h0DSbfZSCdcuG7EVoFOKatgCyTAOBgNVHQ8BAf8EBAMCBaAwEwYDVR0l
BAwwCgYIKwYBBQUHAwEwYwYDVR0RBFwwWoEeZW9zcmVtb3RlQGRhdmUudGh3YWl0
ZXMub3JnLnVrggllb3NyZW1vdGWCD2Vvc3JlbW90ZS5sb2NhbIcECmUBAocEwKgB
AocEwKgBUIcECgAARIcEwKgBezANBgkqhkiG9w0BAQsFAAOCAQEAhMBNKpaXS0ya
bOTyyDf6QPW5lDp1gJ4fXC5zOZHkcFefmzOZE8c0pTWfa3nHJUs57JWqHuoCNlEE
jrfsO1zLnZRQ58Wk3G4Om8SxgeeT6iayp8azAKpnBxMRLbI2CINrhv1aO8JR6b8T
LlgjxnMDFsCOFr/Jhv8e+aRgmlLu7yDm+05YNCj6j7DOpopBUUzIBwb068S1gtDp
+9L5yhEepx4+tSv5ZP7IISBLCsY+A/bWCfUC8xuxAaBWmEWSHyaUj0y9Nd25+OI/
7XCPGuOZJ1xr/Z4GKtjmkMnvRbeiNC+3jgdWq680tdJRCk7TdoQ0pI81egWjq87l
cdRMJ2VFjw==
-----END CERTIFICATE-----
