Certificate:
    Data:
        Version: 3 (0x2)
        Serial Number:
            e8:56:c9:00:9c:97:08:53
    Signature Algorithm: sha256WithRSAEncryption
        Issuer: C=UK, ST=Suffolk, L=Bury St Edmunds, O=EosRemote, OU=https://github.com/DaveThw/EosRemote/, CN=EosRemote LAN Server CA
        Validity
            Not Before: May  3 17:23:55 2019 GMT
            Not After : May  2 17:23:55 2020 GMT
        Subject: C=UK, O=EosRemote, OU=EosRemote LAN Server, CN=eosremote
        Subject Public Key Info:
            Public Key Algorithm: rsaEncryption
                Public-Key: (2048 bit)
                Modulus:
                    00:df:f4:81:87:81:b0:1b:22:0b:b0:fa:fb:d9:9f:
                    fc:2e:36:35:f1:4d:ae:ea:44:f2:ad:c1:37:a7:ea:
                    d2:f9:a3:73:02:f1:75:0d:75:f4:ce:b3:f7:af:78:
                    97:04:7b:79:99:8a:a5:fa:1d:0c:dc:ac:36:53:f7:
                    ed:4a:46:6e:7b:d6:4f:a2:46:b2:49:8a:ce:df:f8:
                    02:f2:3a:7c:e3:8f:14:71:76:ee:1a:71:dc:7c:52:
                    a3:7a:44:30:92:af:b8:8c:7d:a4:19:06:fa:36:29:
                    dc:59:82:6a:2b:e1:6d:e9:d8:2e:14:5b:76:30:b4:
                    f9:df:e6:2d:38:87:c1:8e:c7:11:04:05:28:aa:4a:
                    60:f8:82:8a:76:6d:e7:e4:6d:04:92:9e:28:8a:09:
                    50:07:fa:53:f4:4c:64:f8:58:26:c9:66:b5:33:bc:
                    d1:5a:d5:6e:39:53:5f:60:00:17:60:0c:4c:68:6e:
                    8b:b3:04:88:fc:4f:4c:31:14:50:1d:60:68:a6:ef:
                    5a:4f:0e:88:07:45:86:c8:63:44:53:f8:36:d2:ee:
                    f7:24:a1:14:da:8e:0f:0e:f6:f7:53:4a:af:80:3f:
                    db:40:f7:41:48:af:41:86:1f:f4:d3:d4:ec:a5:a3:
                    a5:2a:94:e4:2c:6d:40:3c:fc:48:8d:40:81:95:5e:
                    5a:0f
                Exponent: 65537 (0x10001)
        X509v3 extensions:
            X509v3 Basic Constraints: critical
                CA:FALSE
            X509v3 Subject Key Identifier: 
                28:15:73:4F:AF:5B:74:5F:03:68:50:E1:42:DF:44:0B:B6:1D:2E:40
            X509v3 Authority Key Identifier: 
                keyid:F6:87:40:D2:6D:F6:52:09:D7:2E:1B:B1:15:A0:53:8A:6A:D8:02:C9

            X509v3 Key Usage: critical
                Digital Signature, Key Encipherment
            X509v3 Extended Key Usage: 
                TLS Web Server Authentication
            X509v3 Subject Alternative Name: 
                email:eosremote@dave.thwaites.org.uk, DNS:eosremote, DNS:eosremote.local, IP Address:10.101.1.2, IP Address:192.168.1.2, IP Address:192.168.1.80, IP Address:10.0.0.68
    Signature Algorithm: sha256WithRSAEncryption
         86:c1:96:17:94:d7:99:04:08:ac:96:57:88:dc:9b:2a:8f:95:
         71:70:81:af:08:68:37:89:35:7b:d9:3b:c5:34:ad:32:f1:15:
         36:ee:53:0b:c3:cb:26:48:65:f5:a9:01:14:d3:c5:7d:80:5b:
         fc:2f:df:2a:c3:86:6a:fc:59:3e:2b:ba:ec:71:18:8b:19:d6:
         a4:b2:34:c5:68:ed:78:ad:7c:a7:1a:5b:3e:40:03:b2:d2:18:
         63:55:b3:fc:b0:f9:11:fb:fe:fe:e5:d7:9a:cf:a2:43:18:3b:
         54:61:d7:4d:c5:42:4e:c0:76:d7:a7:c1:e8:be:d9:31:b8:27:
         b8:b1:90:4f:a0:57:47:82:02:4c:50:3b:87:4e:e1:fb:f6:17:
         ab:1b:f9:b2:16:bf:81:98:23:ba:d4:6a:c1:cd:e6:fe:f6:74:
         7a:d4:66:48:23:77:51:88:ea:3b:80:e2:33:72:0c:93:48:63:
         e9:13:54:c3:07:56:63:1c:16:bf:28:82:90:02:7d:a3:e6:17:
         6b:4c:ab:80:d9:c9:76:99:b9:90:c6:d1:bb:a5:20:45:7f:69:
         fe:4f:90:dd:c6:df:d5:44:b5:ea:24:0b:eb:1b:f2:9f:8c:14:
         b5:d4:a8:17:fe:c4:d2:3b:93:58:cb:1c:ae:df:44:6e:e4:e3:
         49:a9:f5:44
-----BEGIN CERTIFICATE-----
MIIETTCCAzWgAwIBAgIJAOhWyQCclwhTMA0GCSqGSIb3DQEBCwUAMIGfMQswCQYD
VQQGEwJVSzEQMA4GA1UECAwHU3VmZm9sazEYMBYGA1UEBwwPQnVyeSBTdCBFZG11
bmRzMRIwEAYDVQQKDAlFb3NSZW1vdGUxLjAsBgNVBAsMJWh0dHBzOi8vZ2l0aHVi
LmNvbS9EYXZlVGh3L0Vvc1JlbW90ZS8xIDAeBgNVBAMMF0Vvc1JlbW90ZSBMQU4g
U2VydmVyIENBMB4XDTE5MDUwMzE3MjM1NVoXDTIwMDUwMjE3MjM1NVowVDELMAkG
A1UEBhMCVUsxEjAQBgNVBAoMCUVvc1JlbW90ZTEdMBsGA1UECwwURW9zUmVtb3Rl
IExBTiBTZXJ2ZXIxEjAQBgNVBAMMCWVvc3JlbW90ZTCCASIwDQYJKoZIhvcNAQEB
BQADggEPADCCAQoCggEBAN/0gYeBsBsiC7D6+9mf/C42NfFNrupE8q3BN6fq0vmj
cwLxdQ119M6z9694lwR7eZmKpfodDNysNlP37UpGbnvWT6JGskmKzt/4AvI6fOOP
FHF27hpx3HxSo3pEMJKvuIx9pBkG+jYp3FmCaivhbenYLhRbdjC0+d/mLTiHwY7H
EQQFKKpKYPiCinZt5+RtBJKeKIoJUAf6U/RMZPhYJslmtTO80VrVbjlTX2AAF2AM
TGhui7MEiPxPTDEUUB1gaKbvWk8OiAdFhshjRFP4NtLu9yShFNqODw7291NKr4A/
20D3QUivQYYf9NPU7KWjpSqU5CxtQDz8SI1AgZVeWg8CAwEAAaOB1TCB0jAMBgNV
HRMBAf8EAjAAMB0GA1UdDgQWBBQoFXNPr1t0XwNoUOFC30QLth0uQDAfBgNVHSME
GDAWgBT2h0DSbfZSCdcuG7EVoFOKatgCyTAOBgNVHQ8BAf8EBAMCBaAwEwYDVR0l
BAwwCgYIKwYBBQUHAwEwXQYDVR0RBFYwVIEeZW9zcmVtb3RlQGRhdmUudGh3YWl0
ZXMub3JnLnVrggllb3NyZW1vdGWCD2Vvc3JlbW90ZS5sb2NhbIcECmUBAocEwKgB
AocEwKgBUIcECgAARDANBgkqhkiG9w0BAQsFAAOCAQEAhsGWF5TXmQQIrJZXiNyb
Ko+VcXCBrwhoN4k1e9k7xTStMvEVNu5TC8PLJkhl9akBFNPFfYBb/C/fKsOGavxZ
Piu67HEYixnWpLI0xWjteK18pxpbPkADstIYY1Wz/LD5Efv+/uXXms+iQxg7VGHX
TcVCTsB216fB6L7ZMbgnuLGQT6BXR4ICTFA7h07h+/YXqxv5sha/gZgjutRqwc3m
/vZ0etRmSCN3UYjqO4DiM3IMk0hj6RNUwwdWYxwWvyiCkAJ9o+YXa0yrgNnJdpm5
kMbRu6UgRX9p/k+Q3cbf1US16iQL6xvyn4wUtdSoF/7E0juTWMscrt9EbuTjSan1
RA==
-----END CERTIFICATE-----
